target datalayout = "e-m:e-p270:32:32-p271:32:32-p272:64:64-i64:64-i128:128-f80:128-n8:16:32:64-S128"
target triple = "x86_64-pc-linux-gnu"

%struct.PageHeaderData = type { %struct.PageXLogRecPtr, i16, i16, i16, i16, i16, i16, i32, [0 x %struct.ItemIdData] }
%struct.PageXLogRecPtr = type { i32, i32 }
%struct.ItemIdData = type { i32 }
%struct.RelationData = type { %struct.RelFileLocator, ptr, i32, i32, i8, i8, i8, i8, i8, i32, i32, i32, i32, ptr, ptr, i32, %struct.LockInfoData, ptr, ptr, ptr, ptr, ptr, i8, ptr, ptr, ptr, ptr, ptr, ptr, i32, ptr, i8, ptr, ptr, i32, i8, i32, ptr, i8, ptr, ptr, ptr, ptr, ptr, ptr, ptr, i32, ptr, ptr, ptr, ptr, ptr, ptr, ptr, ptr, ptr, ptr, ptr, ptr, ptr, ptr, ptr, ptr, ptr, ptr, ptr, i32, i8, ptr }
%struct.RelFileLocator = type { i32, i32, i32 }
%struct.LockInfoData = type { %struct.LockRelId }
%struct.LockRelId = type { i32, i32 }
%struct.GISTPageOpaqueData = type { %struct.PageXLogRecPtr, i32, i16, i16 }
%struct.FormData_pg_class = type { i32, %struct.nameData, i32, i32, i32, i32, i32, i32, i32, i32, float, i32, i32, i8, i8, i8, i8, i16, i16, i8, i8, i8, i8, i8, i8, i8, i8, i32, i32, i32 }
%struct.nameData = type { [64 x i8] }
%struct.FullTransactionId = type { i64 }
%struct.BufferManagerRelation = type { ptr, ptr, i8 }
%struct.GISTDeletedPageContents = type { %struct.FullTransactionId }

@wal_level = external global i32, align 4
@LocalBufferBlockPointers = external global ptr, align 8
@BufferBlocks = external global ptr, align 8

; Function Attrs: inlinehint nounwind uwtable
define internal i64 @FullTransactionIdFromEpochAndXid(i32 noundef %0, i32 noundef %1) #2 {
  %3 = alloca %struct.FullTransactionId, align 8
  %4 = alloca i32, align 4
  %5 = alloca i32, align 4
  store i32 %0, ptr %4, align 4
  store i32 %1, ptr %5, align 4
  %6 = load i32, ptr %4, align 4
  %7 = zext i32 %6 to i64
  %8 = shl i64 %7, 32
  %9 = load i32, ptr %5, align 4
  %10 = zext i32 %9 to i64
  %11 = or i64 %8, %10
  %12 = getelementptr inbounds nuw %struct.FullTransactionId, ptr %3, i32 0, i32 0
  store i64 %11, ptr %12, align 8
  %13 = getelementptr inbounds nuw %struct.FullTransactionId, ptr %3, i32 0, i32 0
  %14 = load i64, ptr %13, align 8
  ret i64 %14
}

; Function Attrs: inlinehint nounwind uwtable
define internal ptr @PageGetContents(ptr noundef %0) #2 {
  %2 = alloca ptr, align 8
  store ptr %0, ptr %2, align 8
  %3 = load ptr, ptr %2, align 8
  %4 = getelementptr inbounds nuw i8, ptr %3, i64 24
  ret ptr %4
}

; Function Attrs: inlinehint nounwind uwtable
define internal void @PageValidateSpecialPointer(ptr noundef %0) #2 {
  %2 = alloca ptr, align 8
  store ptr %0, ptr %2, align 8
  ret void
}

; Function Attrs: inlinehint nounwind uwtable
define internal ptr @BufferGetBlock(i32 noundef %0) #2 {
  %2 = alloca ptr, align 8
  %3 = alloca i32, align 4
  store i32 %0, ptr %3, align 4
  %4 = load i32, ptr %3, align 4
  %5 = icmp slt i32 %4, 0
  br i1 %5, label %6, label %14

6:                                                ; preds = %1
  %7 = load ptr, ptr @LocalBufferBlockPointers, align 8
  %8 = load i32, ptr %3, align 4
  %9 = sub i32 0, %8
  %10 = sub i32 %9, 1
  %11 = sext i32 %10 to i64
  %12 = getelementptr inbounds ptr, ptr %7, i64 %11
  %13 = load ptr, ptr %12, align 8
  store ptr %13, ptr %2, align 8
  br label %21

14:                                               ; preds = %1
  %15 = load ptr, ptr @BufferBlocks, align 8
  %16 = load i32, ptr %3, align 4
  %17 = sub i32 %16, 1
  %18 = sext i32 %17 to i64
  %19 = mul i64 %18, 8192
  %20 = getelementptr inbounds nuw i8, ptr %15, i64 %19
  store ptr %20, ptr %2, align 8
  br label %21

21:                                               ; preds = %14, %6
  %22 = load ptr, ptr %2, align 8
  ret ptr %22
}

; Function Attrs: inlinehint nounwind uwtable
define internal i64 @GistPageGetDeleteXid(ptr noundef %0) #2 {
  %2 = alloca %struct.FullTransactionId, align 8
  %3 = alloca ptr, align 8
  store ptr %0, ptr %3, align 8
  %4 = load ptr, ptr %3, align 8
  %5 = getelementptr inbounds nuw %struct.PageHeaderData, ptr %4, i32 0, i32 3
  %6 = load i16, ptr %5, align 4
  %7 = zext i16 %6 to i64
  %8 = icmp uge i64 %7, 32
  br i1 %8, label %9, label %13

9:                                                ; preds = %1
  %10 = load ptr, ptr %3, align 8
  %11 = call ptr @PageGetContents(ptr noundef %10)
  %12 = getelementptr inbounds nuw %struct.GISTDeletedPageContents, ptr %11, i32 0, i32 0
  call void @llvm.memcpy.p0.p0.i64(ptr align 8 %2, ptr align 8 %12, i64 8, i1 false)
  br label %16

13:                                               ; preds = %1
  %14 = call i64 @FullTransactionIdFromEpochAndXid(i32 noundef 0, i32 noundef 3)
  %15 = getelementptr inbounds nuw %struct.FullTransactionId, ptr %2, i32 0, i32 0
  store i64 %14, ptr %15, align 8
  br label %16

16:                                               ; preds = %13, %9
  %17 = getelementptr inbounds nuw %struct.FullTransactionId, ptr %2, i32 0, i32 0
  %18 = load i64, ptr %17, align 8
  ret i64 %18
}

; Function Attrs: nounwind uwtable
define dso_local zeroext i1 @gistPageRecyclable(ptr noundef %0) #0 {
  %2 = alloca i1, align 1
  %3 = alloca ptr, align 8
  %4 = alloca %struct.FullTransactionId, align 8
  store ptr %0, ptr %3, align 8
  %5 = load ptr, ptr %3, align 8
  %6 = call zeroext i1 @PageIsNew(ptr noundef %5)
  br i1 %6, label %7, label %8

7:                                                ; preds = %1
  store i1 true, ptr %2, align 1
  br label %30

8:                                                ; preds = %1
  %9 = load ptr, ptr %3, align 8
  call void @PageValidateSpecialPointer(ptr noundef %9)
  %10 = load ptr, ptr %3, align 8
  %11 = load ptr, ptr %3, align 8
  %12 = getelementptr inbounds nuw %struct.PageHeaderData, ptr %11, i32 0, i32 5
  %13 = load i16, ptr %12, align 4
  %14 = zext i16 %13 to i32
  %15 = sext i32 %14 to i64
  %16 = getelementptr inbounds i8, ptr %10, i64 %15
  %17 = getelementptr inbounds nuw %struct.GISTPageOpaqueData, ptr %16, i32 0, i32 2
  %18 = load i16, ptr %17, align 4
  %19 = zext i16 %18 to i32
  %20 = and i32 %19, 2
  %21 = icmp ne i32 %20, 0
  br i1 %21, label %22, label %29

22:                                               ; preds = %8
  call void @llvm.lifetime.start.p0(i64 8, ptr %4) #8
  %23 = load ptr, ptr %3, align 8
  %24 = call i64 @GistPageGetDeleteXid(ptr noundef %23)
  %25 = getelementptr inbounds nuw %struct.FullTransactionId, ptr %4, i32 0, i32 0
  store i64 %24, ptr %25, align 8
  %26 = getelementptr inbounds nuw %struct.FullTransactionId, ptr %4, i32 0, i32 0
  %27 = load i64, ptr %26, align 8
  %28 = call zeroext i1 @GlobalVisCheckRemovableFullXid(ptr noundef null, i64 %27)
  store i1 %28, ptr %2, align 1
  call void @llvm.lifetime.end.p0(i64 8, ptr %4) #8
  br label %30

29:                                               ; preds = %8
  store i1 false, ptr %2, align 1
  br label %30

30:                                               ; preds = %29, %22, %7
  %31 = load i1, ptr %2, align 1
  ret i1 %31
}

; Function Attrs: inlinehint nounwind uwtable
define internal zeroext i1 @PageIsNew(ptr noundef %0) #2 {
  %2 = alloca ptr, align 8
  store ptr %0, ptr %2, align 8
  %3 = load ptr, ptr %2, align 8
  %4 = getelementptr inbounds nuw %struct.PageHeaderData, ptr %3, i32 0, i32 4
  %5 = load i16, ptr %4, align 2
  %6 = zext i16 %5 to i32
  %7 = icmp eq i32 %6, 0
  ret i1 %7
}

; Function Attrs: inlinehint nounwind uwtable
define internal ptr @BufferGetPage(i32 noundef %0) #2 {
  %2 = alloca i32, align 4
  store i32 %0, ptr %2, align 4
  %3 = load i32, ptr %2, align 4
  %4 = call ptr @BufferGetBlock(i32 noundef %3)
  ret ptr %4
}

; Function Attrs: nounwind uwtable
define dso_local i32 @gistNewBuffer(ptr noundef %0, ptr noundef %1) #0 {
  %3 = alloca i32, align 4
  %4 = alloca ptr, align 8
  %5 = alloca ptr, align 8
  %6 = alloca i32, align 4
  %7 = alloca i32, align 4
  %8 = alloca i32, align 4
  %9 = alloca ptr, align 8
  %10 = alloca %struct.FullTransactionId, align 8
  %11 = alloca %struct.BufferManagerRelation, align 8
  store ptr %0, ptr %4, align 8
  store ptr %1, ptr %5, align 8
  call void @llvm.lifetime.start.p0(i64 4, ptr %6) #8
  br label %12

12:                                               ; preds = %80, %2
  call void @llvm.lifetime.start.p0(i64 4, ptr %7) #8
  %13 = load ptr, ptr %4, align 8
  %14 = call i32 @GetFreeIndexPage(ptr noundef %13)
  store i32 %14, ptr %7, align 4
  %15 = load i32, ptr %7, align 4
  %16 = icmp eq i32 %15, -1
  br i1 %16, label %17, label %18

17:                                               ; preds = %12
  store i32 2, ptr %8, align 4
  br label %78

18:                                               ; preds = %12
  %19 = load ptr, ptr %4, align 8
  %20 = load i32, ptr %7, align 4
  %21 = call i32 @ReadBuffer(ptr noundef %19, i32 noundef %20)
  store i32 %21, ptr %6, align 4
  %22 = load i32, ptr %6, align 4
  %23 = call zeroext i1 @ConditionalLockBuffer(i32 noundef %22)
  br i1 %23, label %24, label %76

24:                                               ; preds = %18
  call void @llvm.lifetime.start.p0(i64 8, ptr %9) #8
  %25 = load i32, ptr %6, align 4
  %26 = call ptr @BufferGetPage(i32 noundef %25)
  store ptr %26, ptr %9, align 8
  %27 = load ptr, ptr %9, align 8
  %28 = call zeroext i1 @PageIsNew(ptr noundef %27)
  br i1 %28, label %29, label %31

29:                                               ; preds = %24
  %30 = load i32, ptr %6, align 4
  store i32 %30, ptr %3, align 4
  store i32 1, ptr %8, align 4
  br label %73

31:                                               ; preds = %24
  %32 = load ptr, ptr %4, align 8
  %33 = load i32, ptr %6, align 4
  call void @gistcheckpage(ptr noundef %32, i32 noundef %33)
  %34 = load ptr, ptr %9, align 8
  %35 = call zeroext i1 @gistPageRecyclable(ptr noundef %34)
  br i1 %35, label %36, label %71

36:                                               ; preds = %31
  %37 = load i32, ptr @wal_level, align 4
  %38 = icmp sge i32 %37, 1
  br i1 %38, label %39, label %69

39:                                               ; preds = %36
  %40 = load ptr, ptr %4, align 8
  %41 = getelementptr inbounds nuw %struct.RelationData, ptr %40, i32 0, i32 13
  %42 = load ptr, ptr %41, align 8
  %43 = getelementptr inbounds nuw %struct.FormData_pg_class, ptr %42, i32 0, i32 15
  %44 = load i8, ptr %43, align 2
  %45 = sext i8 %44 to i32
  %46 = icmp eq i32 %45, 112
  br i1 %46, label %47, label %69

47:                                               ; preds = %39
  %48 = load i32, ptr @wal_level, align 4
  %49 = icmp sge i32 %48, 1
  br i1 %49, label %60, label %50

50:                                               ; preds = %47
  %51 = load ptr, ptr %4, align 8
  %52 = getelementptr inbounds nuw %struct.RelationData, ptr %51, i32 0, i32 9
  %53 = load i32, ptr %52, align 8
  %54 = icmp eq i32 %53, 0
  br i1 %54, label %55, label %69

55:                                               ; preds = %50
  %56 = load ptr, ptr %4, align 8
  %57 = getelementptr inbounds nuw %struct.RelationData, ptr %56, i32 0, i32 11
  %58 = load i32, ptr %57, align 8
  %59 = icmp eq i32 %58, 0
  br i1 %59, label %60, label %69

60:                                               ; preds = %55, %47
  %61 = load ptr, ptr %4, align 8
  %62 = load ptr, ptr %5, align 8
  %63 = load i32, ptr %7, align 4
  %64 = load ptr, ptr %9, align 8
  %65 = call i64 @GistPageGetDeleteXid(ptr noundef %64)
  %66 = getelementptr inbounds nuw %struct.FullTransactionId, ptr %10, i32 0, i32 0
  store i64 %65, ptr %66, align 8
  %67 = getelementptr inbounds nuw %struct.FullTransactionId, ptr %10, i32 0, i32 0
  %68 = load i64, ptr %67, align 8
  call void @gistXLogPageReuse(ptr noundef %61, ptr noundef %62, i32 noundef %63, i64 %68)
  br label %69

69:                                               ; preds = %60, %55, %50, %39, %36
  %70 = load i32, ptr %6, align 4
  store i32 %70, ptr %3, align 4
  store i32 1, ptr %8, align 4
  br label %73

71:                                               ; preds = %31
  %72 = load i32, ptr %6, align 4
  call void @LockBuffer(i32 noundef %72, i32 noundef 0)
  store i32 0, ptr %8, align 4
  br label %73

73:                                               ; preds = %71, %69, %29
  call void @llvm.lifetime.end.p0(i64 8, ptr %9) #8
  %74 = load i32, ptr %8, align 4
  switch i32 %74, label %78 [
    i32 0, label %75
  ]

75:                                               ; preds = %73
  br label %76

76:                                               ; preds = %75, %18
  %77 = load i32, ptr %6, align 4
  call void @ReleaseBuffer(i32 noundef %77)
  store i32 0, ptr %8, align 4
  br label %78

78:                                               ; preds = %76, %73, %17
  call void @llvm.lifetime.end.p0(i64 4, ptr %7) #8
  %79 = load i32, ptr %8, align 4
  switch i32 %79, label %89 [
    i32 0, label %80
    i32 2, label %81
  ]

80:                                               ; preds = %78
  br label %12

81:                                               ; preds = %78
  %82 = getelementptr inbounds nuw %struct.BufferManagerRelation, ptr %11, i32 0, i32 0
  %83 = load ptr, ptr %4, align 8
  store ptr %83, ptr %82, align 8
  %84 = getelementptr inbounds nuw %struct.BufferManagerRelation, ptr %11, i32 0, i32 1
  store ptr null, ptr %84, align 8
  %85 = getelementptr inbounds nuw %struct.BufferManagerRelation, ptr %11, i32 0, i32 2
  store i8 0, ptr %85, align 8
  %86 = getelementptr i8, ptr %11, i64 17
  call void @llvm.memset.p0.i64(ptr align 1 %86, i8 0, i64 7, i1 false)
  %87 = call i32 @ExtendBufferedRel(ptr noundef byval(%struct.BufferManagerRelation) align 8 %11, i32 noundef 0, ptr noundef null, i32 noundef 8)
  store i32 %87, ptr %6, align 4
  %88 = load i32, ptr %6, align 4
  store i32 %88, ptr %3, align 4
  store i32 1, ptr %8, align 4
  br label %89

89:                                               ; preds = %81, %78
  call void @llvm.lifetime.end.p0(i64 4, ptr %6) #8
  %90 = load i32, ptr %3, align 4
  ret i32 %90
}