; Function Attrs: nounwind uwtable
define dso_local i32 @gistNewBuffer(ptr noundef %0, ptr noundef %1) local_unnamed_addr #0 {
  %3 = alloca %struct.BufferManagerRelation, align 8
  %4 = tail call i32 @GetFreeIndexPage(ptr noundef %0) #11
  %5 = icmp eq i32 %4, -1
  br i1 %5, label %._crit_edge, label %.lr.ph

.lr.ph:                                           ; preds = %2, %56
  %6 = phi i32 [ %57, %56 ], [ %4, %2 ]
  %7 = tail call i32 @ReadBuffer(ptr noundef %0, i32 noundef %6) #11
  %8 = tail call zeroext i1 @ConditionalLockBuffer(i32 noundef %7) #11
  br i1 %8, label %9, label %56

9:                                                ; preds = %.lr.ph
  %10 = icmp slt i32 %7, 0
  br i1 %10, label %11, label %17

11:                                               ; preds = %9
  %12 = load ptr, ptr @LocalBufferBlockPointers, align 8
  %13 = xor i32 %7, -1
  %14 = zext nneg i32 %13 to i64
  %15 = getelementptr inbounds nuw ptr, ptr %12, i64 %14
  %16 = load ptr, ptr %15, align 8
  br label %BufferGetPage.exit

17:                                               ; preds = %9
  %18 = load ptr, ptr @BufferBlocks, align 8
  %19 = add nsw i32 %7, -1
  %20 = sext i32 %19 to i64
  %21 = shl nsw i64 %20, 13
  %22 = getelementptr inbounds nuw i8, ptr %18, i64 %21
  br label %BufferGetPage.exit

BufferGetPage.exit:                               ; preds = %11, %17
  %.0.i.i = phi ptr [ %16, %11 ], [ %22, %17 ]
  %23 = getelementptr i8, ptr %.0.i.i, i64 14
  %.val = load i16, ptr %23, align 2
  %24 = icmp eq i16 %.val, 0
  br i1 %24, label %.thread33, label %25

25:                                               ; preds = %BufferGetPage.exit
  tail call void @gistcheckpage(ptr noundef %0, i32 noundef %7)
  %.val.i = load i16, ptr %23, align 2
  %26 = icmp eq i16 %.val.i, 0
  br i1 %26, label %gistPageRecyclable.exit.thread, label %27

27:                                               ; preds = %25
  %28 = getelementptr inbounds nuw i8, ptr %.0.i.i, i64 16
  %29 = load i16, ptr %28, align 4
  %30 = zext i16 %29 to i64
  %31 = getelementptr inbounds nuw i8, ptr %.0.i.i, i64 %30
  %32 = getelementptr inbounds nuw i8, ptr %31, i64 12
  %33 = load i16, ptr %32, align 4
  %34 = and i16 %33, 2
  %.not.i = icmp eq i16 %34, 0
  br i1 %.not.i, label %gistPageRecyclable.exit.thread29, label %35

35:                                               ; preds = %27
  %36 = getelementptr inbounds nuw i8, ptr %.0.i.i, i64 12
  %37 = load i16, ptr %36, align 4
  %38 = icmp ugt i16 %37, 31
  br i1 %38, label %39, label %gistPageRecyclable.exit

39:                                               ; preds = %35
  %40 = getelementptr inbounds nuw i8, ptr %.0.i.i, i64 24
  %.sroa.0.0.copyload.i.i = load i64, ptr %40, align 8
  br label %gistPageRecyclable.exit

gistPageRecyclable.exit:                          ; preds = %35, %39
  %.sroa.0.0.i.i = phi i64 [ %.sroa.0.0.copyload.i.i, %39 ], [ 3, %35 ]
  %41 = tail call zeroext i1 @GlobalVisCheckRemovableFullXid(ptr noundef null, i64 %.sroa.0.0.i.i) #11
  br i1 %41, label %gistPageRecyclable.exit.thread, label %gistPageRecyclable.exit.thread29

gistPageRecyclable.exit.thread:                   ; preds = %25, %gistPageRecyclable.exit
  %42 = load i32, ptr @wal_level, align 4
  %43 = icmp sgt i32 %42, 0
  br i1 %43, label %44, label %.thread33

44:                                               ; preds = %gistPageRecyclable.exit.thread
  %45 = getelementptr inbounds nuw i8, ptr %0, i64 56
  %46 = load ptr, ptr %45, align 8
  %47 = getelementptr inbounds nuw i8, ptr %46, i64 114
  %48 = load i8, ptr %47, align 2
  %49 = icmp eq i8 %48, 112
  br i1 %49, label %50, label %.thread33

50:                                               ; preds = %44
  %51 = getelementptr inbounds nuw i8, ptr %.0.i.i, i64 12
  %52 = load i16, ptr %51, align 4
  %53 = icmp ugt i16 %52, 31
  br i1 %53, label %54, label %GistPageGetDeleteXid.exit

54:                                               ; preds = %50
  %55 = getelementptr inbounds nuw i8, ptr %.0.i.i, i64 24
  %.sroa.0.0.copyload.i = load i64, ptr %55, align 8
  br label %GistPageGetDeleteXid.exit

GistPageGetDeleteXid.exit:                        ; preds = %50, %54
  %.sroa.0.0.i = phi i64 [ %.sroa.0.0.copyload.i, %54 ], [ 3, %50 ]
  tail call void @gistXLogPageReuse(ptr noundef nonnull %0, ptr noundef %1, i32 noundef %6, i64 %.sroa.0.0.i) #11
  br label %.thread33

gistPageRecyclable.exit.thread29:                 ; preds = %27, %gistPageRecyclable.exit
  tail call void @LockBuffer(i32 noundef %7, i32 noundef 0) #11
  br label %56

56:                                               ; preds = %.lr.ph, %gistPageRecyclable.exit.thread29
  tail call void @ReleaseBuffer(i32 noundef %7) #11
  %57 = tail call i32 @GetFreeIndexPage(ptr noundef %0) #11
  %58 = icmp eq i32 %57, -1
  br i1 %58, label %._crit_edge, label %.lr.ph

._crit_edge:                                      ; preds = %56, %2
  store ptr %0, ptr %3, align 8
  %59 = getelementptr inbounds nuw i8, ptr %3, i64 8
  call void @llvm.memset.p0.i64(ptr noundef nonnull align 8 dereferenceable(16) %59, i8 0, i64 16, i1 false)
  %60 = tail call i32 @ExtendBufferedRel(ptr noundef nonnull byval(%struct.BufferManagerRelation) align 8 %3, i32 noundef 0, ptr noundef null, i32 noundef 8) #11
  br label %.thread33

.thread33:                                        ; preds = %BufferGetPage.exit, %GistPageGetDeleteXid.exit, %44, %gistPageRecyclable.exit.thread, %._crit_edge
  %.4 = phi i32 [ %60, %._crit_edge ], [ %7, %gistPageRecyclable.exit.thread ], [ %7, %44 ], [ %7, %GistPageGetDeleteXid.exit ], [ %7, %BufferGetPage.exit ]
  ret i32 %.4
}